target datalayout = "e-m:e-p270:32:32-p271:32:32-p272:64:64-i64:64-i128:128-f80:128-n8:16:32:64-S128"
target triple = "x86_64-pc-linux-gnu"

%struct.List = type { i32, i32, i32, ptr, [0 x %union.ListCell] }
%union.ListCell = type { ptr }
%struct.Node = type { i32 }

@.str = private unnamed_addr constant [39 x i8] c"failed to find relation %d in joinlist\00", align 1
@.str.1 = private unnamed_addr constant [15 x i8] c"analyzejoins.c\00", align 1
@enable_self_join_elimination = dso_local global i8 0, align 1
@__func__.remove_useless_self_joins = private unnamed_addr constant [26 x i8] c"remove_useless_self_joins\00", align 1

; Function Attrs: inlinehint nounwind uwtable
define internal ptr @list_nth_cell(ptr noundef %0, i32 noundef %1) #5 {
  %3 = alloca ptr, align 8
  %4 = alloca i32, align 4
  store ptr %0, ptr %3, align 8
  store i32 %1, ptr %4, align 4
  %5 = load ptr, ptr %3, align 8
  %6 = getelementptr inbounds nuw %struct.List, ptr %5, i32 0, i32 3
  %7 = load ptr, ptr %6, align 8
  %8 = load i32, ptr %4, align 4
  %9 = sext i32 %8 to i64
  %10 = getelementptr inbounds %union.ListCell, ptr %7, i64 %9
  ret ptr %10
}

; Function Attrs: inlinehint nounwind uwtable
define internal i32 @list_length(ptr noundef %0) #5 {
  %2 = alloca ptr, align 8
  store ptr %0, ptr %2, align 8
  %3 = load ptr, ptr %2, align 8
  %4 = icmp ne ptr %3, null
  br i1 %4, label %5, label %9

5:                                                ; preds = %1
  %6 = load ptr, ptr %2, align 8
  %7 = getelementptr inbounds nuw %struct.List, ptr %6, i32 0, i32 1
  %8 = load i32, ptr %7, align 4
  br label %10

9:                                                ; preds = %1
  br label %10

10:                                               ; preds = %9, %5
  %11 = phi i32 [ %8, %5 ], [ 0, %9 ]
  ret i32 %11
}

; Function Attrs: nounwind uwtable
define dso_local ptr @remove_useless_self_joins(ptr noundef %0, ptr noundef %1) #0 {
  %3 = alloca ptr, align 8
  %4 = alloca ptr, align 8
  %5 = alloca ptr, align 8
  %6 = alloca ptr, align 8
  %7 = alloca i32, align 4
  %8 = alloca i32, align 4
  %9 = alloca i32, align 4
  store ptr %0, ptr %4, align 8
  store ptr %1, ptr %5, align 8
  call void @llvm.lifetime.start.p0(i64 8, ptr %6) #7
  store ptr null, ptr %6, align 8
  call void @llvm.lifetime.start.p0(i64 4, ptr %7) #7
  store i32 -1, ptr %7, align 4
  %10 = load i8, ptr @enable_self_join_elimination, align 1, !range !8, !noundef !9
  %11 = trunc i8 %10 to i1
  br i1 %11, label %12, label %26

12:                                               ; preds = %2
  %13 = load ptr, ptr %5, align 8
  %14 = icmp eq ptr %13, null
  br i1 %14, label %26, label %15

15:                                               ; preds = %12
  %16 = load ptr, ptr %5, align 8
  %17 = call i32 @list_length(ptr noundef %16)
  %18 = icmp eq i32 %17, 1
  br i1 %18, label %19, label %28

19:                                               ; preds = %15
  %20 = load ptr, ptr %5, align 8
  %21 = call ptr @list_nth_cell(ptr noundef %20, i32 noundef 0)
  %22 = load ptr, ptr %21, align 8
  %23 = getelementptr inbounds nuw %struct.Node, ptr %22, i32 0, i32 0
  %24 = load i32, ptr %23, align 4
  %25 = icmp eq i32 %24, 1
  br i1 %25, label %28, label %26

26:                                               ; preds = %19, %12, %2
  %27 = load ptr, ptr %5, align 8
  store ptr %27, ptr %3, align 8
  store i32 1, ptr %8, align 4
  br label %69

28:                                               ; preds = %19, %15
  %29 = load ptr, ptr %4, align 8
  %30 = load ptr, ptr %5, align 8
  %31 = load ptr, ptr %6, align 8
  %32 = call ptr @remove_self_joins_recurse(ptr noundef %29, ptr noundef %30, ptr noundef %31)
  store ptr %32, ptr %6, align 8
  %33 = load ptr, ptr %6, align 8
  %34 = icmp ne ptr %33, null
  %35 = zext i1 %34 to i32
  %36 = icmp ne i32 %35, 0
  %37 = zext i1 %36 to i32
  %38 = sext i32 %37 to i64
  %39 = call i64 @llvm.expect.i64(i64 %38, i64 0)
  %40 = icmp ne i64 %39, 0
  br i1 %40, label %41, label %67

41:                                               ; preds = %28
  br label %42

42:                                               ; preds = %65, %41
  %43 = load ptr, ptr %6, align 8
  %44 = load i32, ptr %7, align 4
  %45 = call i32 @bms_next_member(ptr noundef %43, i32 noundef %44)
  store i32 %45, ptr %7, align 4
  %46 = icmp sge i32 %45, 0
  br i1 %46, label %47, label %66

47:                                               ; preds = %42
  call void @llvm.lifetime.start.p0(i64 4, ptr %9) #7
  store i32 0, ptr %9, align 4
  %48 = load ptr, ptr %5, align 8
  %49 = load i32, ptr %7, align 4
  %50 = call ptr @remove_rel_from_joinlist(ptr noundef %48, i32 noundef %49, ptr noundef %9)
  store ptr %50, ptr %5, align 8
  %51 = load i32, ptr %9, align 4
  %52 = icmp ne i32 %51, 1
  br i1 %52, label %53, label %65

53:                                               ; preds = %47
  br label %54

54:                                               ; preds = %53
  br i1 true, label %55, label %57

55:                                               ; preds = %54
  %56 = call zeroext i1 @errstart_cold(i32 noundef 21, ptr noundef null) #8
  br i1 %56, label %59, label %62

57:                                               ; preds = %54
  %58 = call zeroext i1 @errstart(i32 noundef 21, ptr noundef null)
  br i1 %58, label %59, label %62

59:                                               ; preds = %57, %55
  %60 = load i32, ptr %7, align 4
  %61 = call i32 (ptr, ...) @errmsg_internal(ptr noundef @.str, i32 noundef %60)
  call void @errfinish(ptr noundef @.str.1, i32 noundef 2329, ptr noundef @__func__.remove_useless_self_joins)
  br label %62

62:                                               ; preds = %59, %57, %55
  unreachable

63:                                               ; No predecessors!
  br label %64

64:                                               ; preds = %63
  br label %65

65:                                               ; preds = %64, %47
  call void @llvm.lifetime.end.p0(i64 4, ptr %9) #7
  br label %42, !llvm.loop !22

66:                                               ; preds = %42
  br label %67

67:                                               ; preds = %66, %28
  %68 = load ptr, ptr %5, align 8
  store ptr %68, ptr %3, align 8
  store i32 1, ptr %8, align 4
  br label %69

69:                                               ; preds = %67, %26
  call void @llvm.lifetime.end.p0(i64 4, ptr %7) #7
  call void @llvm.lifetime.end.p0(i64 8, ptr %6) #7
  %70 = load ptr, ptr %3, align 8
  ret ptr %70
}