; Function Attrs: nounwind uwtable
define dso_local ptr @remove_useless_self_joins(ptr noundef %0, ptr noundef captures(address_is_null, ret: address, provenance) %1) local_unnamed_addr #0 {
  %3 = alloca i32, align 4
  %4 = load i8, ptr @enable_self_join_elimination, align 1, !range !4, !noundef !5
  %5 = trunc nuw i8 %4 to i1
  %6 = icmp ne ptr %1, null
  %or.cond.not = and i1 %6, %5
  br i1 %or.cond.not, label %list_length.exit, label %.loopexit

list_length.exit:                                 ; preds = %2
  %7 = getelementptr inbounds nuw i8, ptr %1, i64 4
  %8 = load i32, ptr %7, align 4
  %9 = icmp eq i32 %8, 1
  br i1 %9, label %10, label %15

10:                                               ; preds = %list_length.exit
  %11 = getelementptr i8, ptr %1, i64 16
  %.val = load ptr, ptr %11, align 8
  %12 = load ptr, ptr %.val, align 8
  %13 = load i32, ptr %12, align 4
  %14 = icmp eq i32 %13, 1
  br i1 %14, label %15, label %.loopexit

15:                                               ; preds = %10, %list_length.exit
  %16 = tail call fastcc ptr @remove_self_joins_recurse(ptr noundef %0, ptr noundef nonnull %1, ptr noundef null)
  %.not = icmp eq ptr %16, null
  br i1 %.not, label %.loopexit, label %.preheader, !prof !13

.preheader:                                       ; preds = %15
  %17 = tail call i32 @bms_next_member(ptr noundef nonnull %16, i32 noundef -1) #7
  %18 = icmp sgt i32 %17, -1
  br i1 %18, label %.lr.ph, label %.loopexit

.lr.ph:                                           ; preds = %.preheader, %25
  %19 = phi i32 [ %26, %25 ], [ %17, %.preheader ]
  %.123 = phi ptr [ %20, %25 ], [ %1, %.preheader ]
  call void @llvm.lifetime.start.p0(i64 4, ptr nonnull %3) #7
  store i32 0, ptr %3, align 4
  %20 = call fastcc ptr @remove_rel_from_joinlist(ptr noundef %.123, i32 noundef %19, ptr noundef %3)
  %21 = load i32, ptr %3, align 4
  %.not20 = icmp eq i32 %21, 1
  br i1 %.not20, label %25, label %22

22:                                               ; preds = %.lr.ph
  %23 = tail call zeroext i1 @errstart_cold(i32 noundef 21, ptr noundef null) #8
  tail call void @llvm.assume(i1 %23)
  %24 = tail call i32 (ptr, ...) @errmsg_internal(ptr noundef nonnull @.str, i32 noundef %19) #7
  tail call void @errfinish(ptr noundef nonnull @.str.1, i32 noundef 2329, ptr noundef nonnull @__func__.remove_useless_self_joins) #7
  unreachable

25:                                               ; preds = %.lr.ph
  call void @llvm.lifetime.end.p0(i64 4, ptr nonnull %3) #7
  %26 = tail call i32 @bms_next_member(ptr noundef nonnull %16, i32 noundef %19) #7
  %27 = icmp sgt i32 %26, -1
  br i1 %27, label %.lr.ph, label %.loopexit, !llvm.loop !14

.loopexit:                                        ; preds = %25, %.preheader, %15, %2, %10
  %.016 = phi ptr [ %1, %10 ], [ %1, %2 ], [ %1, %15 ], [ %1, %.preheader ], [ %20, %25 ]
  ret ptr %.016
}